target datalayout = "e-m:e-p270:32:32-p271:32:32-p272:64:64-i64:64-i128:128-f80:128-n8:16:32:64-S128"
target triple = "x86_64-pc-linux-gnu"

%struct.slurmctld_lock_t = type { i32, i32, i32, i32, i32 }
%struct.slurm_conf_t = type { i64, ptr, i16, ptr, ptr, ptr, ptr, ptr, i16, ptr, ptr, ptr, ptr, ptr, ptr, ptr, i16, ptr, ptr, ptr, ptr, i16, ptr, ptr, ptr, i64, ptr, ptr, ptr, ptr, i16, ptr, ptr, i16, i32, ptr, i32, ptr, i32, i32, ptr, ptr, i64, i64, ptr, i16, i16, ptr, i32, i32, ptr, i32, ptr, i32, i16, i16, i16, ptr, i16, i16, ptr, ptr, i32, i16, i16, ptr, i32, i16, ptr, ptr, ptr, ptr, i16, ptr, ptr, ptr, ptr, i32, ptr, ptr, ptr, ptr, i16, i16, ptr, i32, i32, i32, i16, i16, ptr, ptr, i16, ptr, ptr, i32, i32, i32, i32, i32, i64, i32, i32, i16, ptr, ptr, i32, ptr, ptr, ptr, i16, i32, ptr, ptr, i16, ptr, ptr, i32, i16, ptr, ptr, ptr, ptr, i32, i32, i16, i16, i32, ptr, i16, ptr, i32, i32, i32, i32, i32, i32, ptr, i16, ptr, ptr, i32, i16, ptr, i32, i16, i16, ptr, ptr, ptr, i16, ptr, ptr, ptr, ptr, i16, i16, ptr, i16, ptr, i16, ptr, i16, ptr, i16, ptr, ptr, ptr, ptr, i16, ptr, ptr, ptr, i32, ptr, i32, ptr, ptr, i16, ptr, ptr, i32, i16, ptr, ptr, i16, i16, ptr, i16, ptr, ptr, ptr, i32, ptr, i16, i16, ptr, ptr, ptr, ptr, ptr, ptr, ptr, ptr, i16, i32, i16, ptr, ptr, ptr, ptr, i32, ptr, ptr, ptr, i16, ptr, ptr, ptr, i16, ptr, i16, ptr, i16, i16, ptr }
%union.pthread_mutex_t = type { %struct.__pthread_mutex_s }
%struct.__pthread_mutex_s = type { i32, i32, i32, i32, i32, i16, i16, %struct.__pthread_internal_list }
%struct.__pthread_internal_list = type { ptr, ptr }
%struct.slurm_conf_nodeset_t = type { ptr, ptr, ptr }
%struct.config_record_t = type { i16, i16, i16, i32, ptr, i16, ptr, ptr, i32, i64, ptr, ptr, i64, i16, i16, i32, i16, ptr, ptr, i32 }
%struct.slurm_conf_node = type { ptr, ptr, ptr, ptr, ptr, ptr, ptr, i32, i16, ptr, i16, i16, i16, i16, i16, i64, i64, ptr, i16, ptr, i32, ptr, i32 }

@slurm_conf = external global %struct.slurm_conf_t, align 8
@node_record_count = external global i32, align 4
@acct_db_conn = external global ptr, align 8
@active_feature_list = external global ptr, align 8
@avail_feature_list = external global ptr, align 8
@config_list_update_mutex = internal global %union.pthread_mutex_t zeroinitializer, align 8
@.str.131 = private unnamed_addr constant [29 x i8] c"%s: pthread_mutex_lock(): %m\00", align 1
@config_list_update = internal global i8 0, align 1
@.str.132 = private unnamed_addr constant [31 x i8] c"%s: pthread_mutex_unlock(): %m\00", align 1
@__const.create_nodes.write_lock = private unnamed_addr constant %struct.slurmctld_lock_t { i32 1, i32 2, i32 2, i32 2, i32 0 }, align 4
@.str.133 = private unnamed_addr constant [10 x i8] c"cons_tres\00", align 1
@.str.134 = private unnamed_addr constant [52 x i8] c"Node creation only compatible with select/cons_tres\00", align 1
@.str.135 = private unnamed_addr constant [3 x i8] c"%s\00", align 1
@.str.136 = private unnamed_addr constant [30 x i8] c"Failed to parse nodeline '%s'\00", align 1
@.str.137 = private unnamed_addr constant [72 x i8] c"Only State=FUTURE and State=CLOUD allowed for nodes created by scontrol\00", align 1
@slurmctld_tres_cnt = external global i32, align 4
@.str.138 = private unnamed_addr constant [36 x i8] c"Failed to create a node in '%s': %s\00", align 1
@.str.145 = private unnamed_addr constant [56 x i8] c"NodeSet with name %s overlaps with an existing NodeName\00", align 1
@__func__._queue_consolidate_config_list = private unnamed_addr constant [31 x i8] c"_queue_consolidate_config_list\00", align 1
@part_list = external global ptr, align 8

; Function Attrs: nounwind uwtable
define internal void @_update_parts() #0 {
  %1 = load ptr, ptr @part_list, align 8
  %2 = call i32 @list_for_each(ptr noundef %1, ptr noundef @_foreach_build_part_bitmap, ptr noundef null)
  call void @set_partition_tres(i1 noundef zeroext false)
  ret void
}

; Function Attrs: nounwind uwtable
define internal void @_queue_consolidate_config_list() #0 {
  %1 = alloca i32, align 4
  %2 = alloca i32, align 4
  br label %3

3:                                                ; preds = %0
  call void @llvm.lifetime.start.p0(i64 4, ptr %1) #10
  %4 = call i32 @pthread_mutex_lock(ptr noundef @config_list_update_mutex) #10
  store i32 %4, ptr %1, align 4
  %5 = load i32, ptr %1, align 4
  %6 = icmp ne i32 %5, 0
  br i1 %6, label %7, label %10

7:                                                ; preds = %3
  %8 = load i32, ptr %1, align 4
  %9 = call ptr @__errno_location() #13
  store i32 %8, ptr %9, align 4
  call void (ptr, ...) @fatal_abort(ptr noundef @.str.131, ptr noundef @__func__._queue_consolidate_config_list) #12
  unreachable

10:                                               ; preds = %3
  call void @llvm.lifetime.end.p0(i64 4, ptr %1) #10
  br label %11

11:                                               ; preds = %10
  store i8 1, ptr @config_list_update, align 1
  br label %12

12:                                               ; preds = %11
  call void @llvm.lifetime.start.p0(i64 4, ptr %2) #10
  %13 = call i32 @pthread_mutex_unlock(ptr noundef @config_list_update_mutex) #10
  store i32 %13, ptr %2, align 4
  %14 = load i32, ptr %2, align 4
  %15 = icmp ne i32 %14, 0
  br i1 %15, label %16, label %19

16:                                               ; preds = %12
  %17 = load i32, ptr %2, align 4
  %18 = call ptr @__errno_location() #13
  store i32 %17, ptr %18, align 4
  call void (ptr, ...) @fatal_abort(ptr noundef @.str.132, ptr noundef @__func__._queue_consolidate_config_list) #12
  unreachable

19:                                               ; preds = %12
  call void @llvm.lifetime.end.p0(i64 4, ptr %2) #10
  br label %20

20:                                               ; preds = %19
  ret void
}

; Function Attrs: nounwind uwtable
define internal i32 @_validate_nodes_vs_nodeset(ptr noundef %0) #0 {
  %2 = alloca i32, align 4
  %3 = alloca ptr, align 8
  %4 = alloca ptr, align 8
  %5 = alloca ptr, align 8
  %6 = alloca i32, align 4
  %7 = alloca i32, align 4
  %8 = alloca i32, align 4
  store ptr %0, ptr %3, align 8
  call void @llvm.lifetime.start.p0(i64 8, ptr %4) #10
  store ptr null, ptr %4, align 8
  call void @llvm.lifetime.start.p0(i64 8, ptr %5) #10
  call void @llvm.lifetime.start.p0(i64 4, ptr %6) #10
  %9 = call i32 @slurm_conf_nodeset_array(ptr noundef %5)
  store i32 %9, ptr %6, align 4
  %10 = load ptr, ptr %3, align 8
  %11 = icmp ne ptr %10, null
  br i1 %11, label %13, label %12

12:                                               ; preds = %1
  store i32 0, ptr %2, align 4
  store i32 1, ptr %7, align 4
  br label %50

13:                                               ; preds = %1
  %14 = load ptr, ptr %3, align 8
  %15 = call ptr @hostlist_create(ptr noundef %14)
  store ptr %15, ptr %4, align 8
  call void @llvm.lifetime.start.p0(i64 4, ptr %8) #10
  store i32 0, ptr %8, align 4
  br label %16

16:                                               ; preds = %43, %13
  %17 = load i32, ptr %8, align 4
  %18 = load i32, ptr %6, align 4
  %19 = icmp slt i32 %17, %18
  br i1 %19, label %21, label %20

20:                                               ; preds = %16
  store i32 2, ptr %7, align 4
  br label %46

21:                                               ; preds = %16
  %22 = load ptr, ptr %4, align 8
  %23 = load ptr, ptr %5, align 8
  %24 = load i32, ptr %8, align 4
  %25 = sext i32 %24 to i64
  %26 = getelementptr inbounds ptr, ptr %23, i64 %25
  %27 = load ptr, ptr %26, align 8
  %28 = getelementptr inbounds nuw %struct.slurm_conf_nodeset_t, ptr %27, i32 0, i32 1
  %29 = load ptr, ptr %28, align 8
  %30 = call i32 @hostlist_find(ptr noundef %22, ptr noundef %29)
  %31 = icmp ne i32 %30, -1
  br i1 %31, label %32, label %42

32:                                               ; preds = %21
  %33 = load ptr, ptr %5, align 8
  %34 = load i32, ptr %8, align 4
  %35 = sext i32 %34 to i64
  %36 = getelementptr inbounds ptr, ptr %33, i64 %35
  %37 = load ptr, ptr %36, align 8
  %38 = getelementptr inbounds nuw %struct.slurm_conf_nodeset_t, ptr %37, i32 0, i32 1
  %39 = load ptr, ptr %38, align 8
  %40 = call i32 (ptr, ...) @error(ptr noundef @.str.145, ptr noundef %39)
  %41 = load ptr, ptr %4, align 8
  call void @hostlist_destroy(ptr noundef %41)
  store i32 2018, ptr %2, align 4
  store i32 1, ptr %7, align 4
  br label %46

42:                                               ; preds = %21
  br label %43

43:                                               ; preds = %42
  %44 = load i32, ptr %8, align 4
  %45 = add nsw i32 %44, 1
  store i32 %45, ptr %8, align 4
  br label %16, !llvm.loop !14

46:                                               ; preds = %32, %20
  call void @llvm.lifetime.end.p0(i64 4, ptr %8) #10
  %47 = load i32, ptr %7, align 4
  switch i32 %47, label %50 [
    i32 2, label %48
  ]

48:                                               ; preds = %46
  %49 = load ptr, ptr %4, align 8
  call void @hostlist_destroy(ptr noundef %49)
  store i32 0, ptr %2, align 4
  store i32 1, ptr %7, align 4
  br label %50

50:                                               ; preds = %48, %46, %12
  call void @llvm.lifetime.end.p0(i64 4, ptr %6) #10
  call void @llvm.lifetime.end.p0(i64 8, ptr %5) #10
  call void @llvm.lifetime.end.p0(i64 8, ptr %4) #10
  %51 = load i32, ptr %2, align 4
  ret i32 %51
}

; Function Attrs: nounwind uwtable
define dso_local i32 @create_nodes(ptr noundef %0, ptr noundef %1) #0 {
  %3 = alloca i32, align 4
  %4 = alloca ptr, align 8
  %5 = alloca ptr, align 8
  %6 = alloca i32, align 4
  %7 = alloca i32, align 4
  %8 = alloca ptr, align 8
  %9 = alloca ptr, align 8
  %10 = alloca ptr, align 8
  %11 = alloca %struct.slurmctld_lock_t, align 8
  %12 = alloca i32, align 4
  store ptr %0, ptr %4, align 8
  store ptr %1, ptr %5, align 8
  call void @llvm.lifetime.start.p0(i64 4, ptr %6) #10
  call void @llvm.lifetime.start.p0(i64 4, ptr %7) #10
  store i32 0, ptr %7, align 4
  call void @llvm.lifetime.start.p0(i64 8, ptr %8) #10
  call void @llvm.lifetime.start.p0(i64 8, ptr %9) #10
  call void @llvm.lifetime.start.p0(i64 8, ptr %10) #10
  store ptr null, ptr %10, align 8
  call void @llvm.lifetime.start.p0(i64 20, ptr %11) #10
  call void @llvm.memcpy.p0.p0.i64(ptr align 4 %11, ptr align 4 @__const.create_nodes.write_lock, i64 20, i1 false)
  %13 = load ptr, ptr getelementptr inbounds nuw (%struct.slurm_conf_t, ptr @slurm_conf, i32 0, i32 167), align 8
  %14 = call ptr @xstrstr(ptr noundef %13, ptr noundef @.str.133)
  %15 = icmp ne ptr %14, null
  br i1 %15, label %22, label %16

16:                                               ; preds = %2
  %17 = call ptr @xstrdup(ptr noundef @.str.134)
  %18 = load ptr, ptr %5, align 8
  store ptr %17, ptr %18, align 8
  %19 = load ptr, ptr %5, align 8
  %20 = load ptr, ptr %19, align 8
  %21 = call i32 (ptr, ...) @error(ptr noundef @.str.135, ptr noundef %20)
  store i32 2002, ptr %3, align 4
  store i32 1, ptr %12, align 4
  br label %116

22:                                               ; preds = %2
  call void @lock_slurmctld(ptr noundef byval(%struct.slurmctld_lock_t) align 8 %11)
  %23 = load ptr, ptr %4, align 8
  %24 = call ptr @slurm_conf_parse_nodeline(ptr noundef %23, ptr noundef %10)
  store ptr %24, ptr %8, align 8
  %25 = icmp ne ptr %24, null
  br i1 %25, label %33, label %26

26:                                               ; preds = %22
  %27 = load ptr, ptr %4, align 8
  %28 = call ptr (ptr, ...) @xstrdup_printf(ptr noundef @.str.136, ptr noundef %27)
  %29 = load ptr, ptr %5, align 8
  store ptr %28, ptr %29, align 8
  %30 = load ptr, ptr %5, align 8
  %31 = load ptr, ptr %30, align 8
  %32 = call i32 (ptr, ...) @error(ptr noundef @.str.135, ptr noundef %31)
  store i32 -1, ptr %7, align 4
  br label %107

33:                                               ; preds = %22
  %34 = load ptr, ptr %8, align 8
  %35 = getelementptr inbounds nuw %struct.slurm_conf_node, ptr %34, i32 0, i32 0
  %36 = load ptr, ptr %35, align 8
  %37 = call i32 @_validate_nodes_vs_nodeset(ptr noundef %36)
  store i32 %37, ptr %7, align 4
  %38 = icmp ne i32 %37, 0
  br i1 %38, label %39, label %40

39:                                               ; preds = %33
  br label %107

40:                                               ; preds = %33
  %41 = load ptr, ptr %8, align 8
  %42 = getelementptr inbounds nuw %struct.slurm_conf_node, ptr %41, i32 0, i32 19
  %43 = load ptr, ptr %42, align 8
  %44 = load ptr, ptr %8, align 8
  %45 = getelementptr inbounds nuw %struct.slurm_conf_node, ptr %44, i32 0, i32 0
  %46 = load ptr, ptr %45, align 8
  %47 = call i32 @state_str2int(ptr noundef %43, ptr noundef %46)
  store i32 %47, ptr %6, align 4
  %48 = load i32, ptr %6, align 4
  %49 = icmp eq i32 %48, -2
  br i1 %49, label %58, label %50

50:                                               ; preds = %40
  %51 = load i32, ptr %6, align 4
  %52 = icmp ne i32 %51, 6
  br i1 %52, label %53, label %64

53:                                               ; preds = %50
  %54 = load i32, ptr %6, align 4
  %55 = sext i32 %54 to i64
  %56 = and i64 %55, 128
  %57 = icmp ne i64 %56, 0
  br i1 %57, label %64, label %58

58:                                               ; preds = %53, %40
  %59 = call ptr @xstrdup(ptr noundef @.str.137)
  %60 = load ptr, ptr %5, align 8
  store ptr %59, ptr %60, align 8
  %61 = load ptr, ptr %5, align 8
  %62 = load ptr, ptr %61, align 8
  %63 = call i32 (ptr, ...) @error(ptr noundef @.str.135, ptr noundef %62)
  store i32 2028, ptr %7, align 4
  br label %107

64:                                               ; preds = %53, %50
  %65 = load ptr, ptr %8, align 8
  %66 = load i32, ptr @slurmctld_tres_cnt, align 4
  %67 = call ptr @config_record_from_conf_node(ptr noundef %65, i32 noundef %66)
  store ptr %67, ptr %9, align 8
  %68 = load i32, ptr @node_record_count, align 4
  %69 = sext i32 %68 to i64
  %70 = call ptr @bit_alloc(i64 noundef %69)
  %71 = load ptr, ptr %9, align 8
  %72 = getelementptr inbounds nuw %struct.config_record_t, ptr %71, i32 0, i32 10
  store ptr %70, ptr %72, align 8
  %73 = load ptr, ptr %8, align 8
  %74 = load ptr, ptr %9, align 8
  %75 = load ptr, ptr %5, align 8
  %76 = call i32 @expand_nodeline_info(ptr noundef %73, ptr noundef %74, ptr noundef %75, ptr noundef @_build_node_callback)
  store i32 %76, ptr %7, align 4
  %77 = icmp ne i32 %76, 0
  br i1 %77, label %78, label %85

78:                                               ; preds = %64
  %79 = load ptr, ptr %8, align 8
  %80 = getelementptr inbounds nuw %struct.slurm_conf_node, ptr %79, i32 0, i32 0
  %81 = load ptr, ptr %80, align 8
  %82 = load ptr, ptr %5, align 8
  %83 = load ptr, ptr %82, align 8
  %84 = call i32 (ptr, ...) @error(ptr noundef @.str.138, ptr noundef %81, ptr noundef %83)
  br label %107

85:                                               ; preds = %64
  %86 = load ptr, ptr %9, align 8
  %87 = getelementptr inbounds nuw %struct.config_record_t, ptr %86, i32 0, i32 6
  %88 = load ptr, ptr %87, align 8
  %89 = icmp ne ptr %88, null
  br i1 %89, label %90, label %105

90:                                               ; preds = %85
  %91 = load ptr, ptr @avail_feature_list, align 8
  %92 = load ptr, ptr %9, align 8
  %93 = getelementptr inbounds nuw %struct.config_record_t, ptr %92, i32 0, i32 6
  %94 = load ptr, ptr %93, align 8
  %95 = load ptr, ptr %9, align 8
  %96 = getelementptr inbounds nuw %struct.config_record_t, ptr %95, i32 0, i32 10
  %97 = load ptr, ptr %96, align 8
  call void @update_feature_list(ptr noundef %91, ptr noundef %94, ptr noundef %97)
  %98 = load ptr, ptr @active_feature_list, align 8
  %99 = load ptr, ptr %9, align 8
  %100 = getelementptr inbounds nuw %struct.config_record_t, ptr %99, i32 0, i32 6
  %101 = load ptr, ptr %100, align 8
  %102 = load ptr, ptr %9, align 8
  %103 = getelementptr inbounds nuw %struct.config_record_t, ptr %102, i32 0, i32 10
  %104 = load ptr, ptr %103, align 8
  call void @update_feature_list(ptr noundef %98, ptr noundef %101, ptr noundef %104)
  br label %105

105:                                              ; preds = %90, %85
  call void @_queue_consolidate_config_list()
  call void @set_cluster_tres(i1 noundef zeroext false)
  call void @_update_parts()
  call void @power_save_set_timeouts(ptr noundef null)
  call void @power_save_exc_setup()
  %106 = call i32 @select_g_reconfigure()
  br label %107

107:                                              ; preds = %105, %78, %58, %39, %26
  %108 = load ptr, ptr %10, align 8
  call void @s_p_hashtbl_destroy(ptr noundef %108)
  call void @unlock_slurmctld(ptr noundef byval(%struct.slurmctld_lock_t) align 8 %11)
  %109 = load i32, ptr %7, align 4
  %110 = icmp eq i32 %109, 0
  br i1 %110, label %111, label %114

111:                                              ; preds = %107
  %112 = load ptr, ptr @acct_db_conn, align 8
  %113 = call i32 @clusteracct_storage_g_cluster_tres(ptr noundef %112, ptr noundef null, ptr noundef null, i64 noundef 0, i16 noundef zeroext 11008)
  br label %114

114:                                              ; preds = %111, %107
  %115 = load i32, ptr %7, align 4
  store i32 %115, ptr %3, align 4
  store i32 1, ptr %12, align 4
  br label %116

116:                                              ; preds = %114, %16
  call void @llvm.lifetime.end.p0(i64 20, ptr %11) #10
  call void @llvm.lifetime.end.p0(i64 8, ptr %10) #10
  call void @llvm.lifetime.end.p0(i64 8, ptr %9) #10
  call void @llvm.lifetime.end.p0(i64 8, ptr %8) #10
  call void @llvm.lifetime.end.p0(i64 4, ptr %7) #10
  call void @llvm.lifetime.end.p0(i64 4, ptr %6) #10
  %117 = load i32, ptr %3, align 4
  ret i32 %117
}