; Function Attrs: nounwind uwtable
define dso_local i32 @create_nodes(ptr noundef %0, ptr noundef %1) local_unnamed_addr #0 {
  %3 = alloca ptr, align 8
  %4 = alloca ptr, align 8
  call void @llvm.lifetime.start.p0(i64 8, ptr nonnull %4) #15
  store ptr null, ptr %4, align 8
  %5 = load ptr, ptr getelementptr inbounds nuw (i8, ptr @slurm_conf, i64 1104), align 8
  %6 = tail call ptr @xstrstr(ptr noundef %5, ptr noundef nonnull @.str.133) #15
  %.not = icmp eq ptr %6, null
  br i1 %.not, label %7, label %10

7:                                                ; preds = %2
  %8 = tail call ptr @xstrdup(ptr noundef nonnull @.str.134) #15
  store ptr %8, ptr %1, align 8
  %9 = tail call i32 (ptr, ...) @error(ptr noundef nonnull @.str.135, ptr noundef %8) #15
  br label %80

10:                                               ; preds = %2
  tail call void @lock_slurmctld(ptr noundef nonnull byval(%struct.slurmctld_lock_t) align 8 @__const.delete_nodes.write_lock) #15
  %11 = call ptr @slurm_conf_parse_nodeline(ptr noundef %0, ptr noundef nonnull %4) #15
  %.not34 = icmp eq ptr %11, null
  br i1 %.not34, label %12, label %15

12:                                               ; preds = %10
  %13 = call ptr (ptr, ...) @xstrdup_printf(ptr noundef nonnull @.str.136, ptr noundef %0) #15
  store ptr %13, ptr %1, align 8
  %14 = call i32 (ptr, ...) @error(ptr noundef nonnull @.str.135, ptr noundef %13) #15
  br label %74

15:                                               ; preds = %10
  %16 = load ptr, ptr %11, align 8
  call void @llvm.lifetime.start.p0(i64 8, ptr nonnull %3) #15
  %17 = call i32 @slurm_conf_nodeset_array(ptr noundef nonnull %3) #15
  %.not.i = icmp eq ptr %16, null
  br i1 %.not.i, label %_validate_nodes_vs_nodeset.exit.thread, label %18

18:                                               ; preds = %15
  %19 = call ptr @hostlist_create(ptr noundef nonnull %16) #15
  %.not1516.i = icmp sgt i32 %17, 0
  br i1 %.not1516.i, label %.lr.ph.preheader.i, label %_validate_nodes_vs_nodeset.exit.thread43

.lr.ph.preheader.i:                               ; preds = %18
  %wide.trip.count.i = zext nneg i32 %17 to i64
  br label %.lr.ph.i

20:                                               ; preds = %.lr.ph.i
  %indvars.iv.next.i = add nuw nsw i64 %indvars.iv.i, 1
  %exitcond.not.i = icmp eq i64 %indvars.iv.next.i, %wide.trip.count.i
  br i1 %exitcond.not.i, label %_validate_nodes_vs_nodeset.exit.thread43, label %.lr.ph.i, !llvm.loop !13

.lr.ph.i:                                         ; preds = %20, %.lr.ph.preheader.i
  %indvars.iv.i = phi i64 [ 0, %.lr.ph.preheader.i ], [ %indvars.iv.next.i, %20 ]
  %21 = load ptr, ptr %3, align 8
  %22 = getelementptr inbounds nuw ptr, ptr %21, i64 %indvars.iv.i
  %23 = load ptr, ptr %22, align 8
  %24 = getelementptr inbounds nuw i8, ptr %23, i64 8
  %25 = load ptr, ptr %24, align 8
  %26 = call i32 @hostlist_find(ptr noundef %19, ptr noundef %25) #15
  %.not14.i = icmp eq i32 %26, -1
  br i1 %.not14.i, label %20, label %_validate_nodes_vs_nodeset.exit

_validate_nodes_vs_nodeset.exit.thread43:         ; preds = %20, %18
  call void @hostlist_destroy(ptr noundef %19) #15
  br label %_validate_nodes_vs_nodeset.exit.thread

_validate_nodes_vs_nodeset.exit:                  ; preds = %.lr.ph.i
  %27 = load ptr, ptr %3, align 8
  %28 = getelementptr inbounds nuw ptr, ptr %27, i64 %indvars.iv.i
  %29 = load ptr, ptr %28, align 8
  %30 = getelementptr inbounds nuw i8, ptr %29, i64 8
  %31 = load ptr, ptr %30, align 8
  %32 = call i32 (ptr, ...) @error(ptr noundef nonnull @.str.145, ptr noundef %31) #15
  call void @hostlist_destroy(ptr noundef %19) #15
  call void @llvm.lifetime.end.p0(i64 8, ptr nonnull %3) #15
  br label %74

_validate_nodes_vs_nodeset.exit.thread:           ; preds = %15, %_validate_nodes_vs_nodeset.exit.thread43
  call void @llvm.lifetime.end.p0(i64 8, ptr nonnull %3) #15
  %33 = getelementptr inbounds nuw i8, ptr %11, i64 120
  %34 = load ptr, ptr %33, align 8
  %35 = load ptr, ptr %11, align 8
  %36 = call i32 @state_str2int(ptr noundef %34, ptr noundef %35) #15
  switch i32 %36, label %37 [
    i32 -2, label %39
    i32 6, label %42
  ]

37:                                               ; preds = %_validate_nodes_vs_nodeset.exit.thread
  %38 = and i32 %36, 128
  %.not37 = icmp eq i32 %38, 0
  br i1 %.not37, label %39, label %42

39:                                               ; preds = %_validate_nodes_vs_nodeset.exit.thread, %37
  %40 = call ptr @xstrdup(ptr noundef nonnull @.str.137) #15
  store ptr %40, ptr %1, align 8
  %41 = call i32 (ptr, ...) @error(ptr noundef nonnull @.str.135, ptr noundef %40) #15
  br label %74

42:                                               ; preds = %_validate_nodes_vs_nodeset.exit.thread, %37
  %43 = load i32, ptr @slurmctld_tres_cnt, align 4
  %44 = call ptr @config_record_from_conf_node(ptr noundef nonnull %11, i32 noundef %43) #15
  %45 = load i32, ptr @node_record_count, align 4
  %46 = sext i32 %45 to i64
  %47 = call ptr @bit_alloc(i64 noundef %46) #15
  %48 = getelementptr inbounds nuw i8, ptr %44, i64 64
  store ptr %47, ptr %48, align 8
  %49 = call i32 @expand_nodeline_info(ptr noundef nonnull %11, ptr noundef %44, ptr noundef %1, ptr noundef nonnull @_build_node_callback) #15
  %.not38 = icmp eq i32 %49, 0
  br i1 %.not38, label %54, label %50

50:                                               ; preds = %42
  %51 = load ptr, ptr %11, align 8
  %52 = load ptr, ptr %1, align 8
  %53 = call i32 (ptr, ...) @error(ptr noundef nonnull @.str.138, ptr noundef %51, ptr noundef %52) #15
  br label %74

54:                                               ; preds = %42
  %55 = getelementptr inbounds nuw i8, ptr %44, i64 32
  %56 = load ptr, ptr %55, align 8
  %.not39 = icmp eq ptr %56, null
  br i1 %.not39, label %63, label %57

57:                                               ; preds = %54
  %58 = load ptr, ptr @avail_feature_list, align 8
  %59 = load ptr, ptr %48, align 8
  call void @update_feature_list(ptr noundef %58, ptr noundef nonnull %56, ptr noundef %59) #15
  %60 = load ptr, ptr @active_feature_list, align 8
  %61 = load ptr, ptr %55, align 8
  %62 = load ptr, ptr %48, align 8
  call void @update_feature_list(ptr noundef %60, ptr noundef %61, ptr noundef %62) #15
  br label %63

63:                                               ; preds = %57, %54
  %64 = call i32 @pthread_mutex_lock(ptr noundef nonnull @config_list_update_mutex) #15
  %.not.i40 = icmp eq i32 %64, 0
  br i1 %.not.i40, label %67, label %65

65:                                               ; preds = %63
  %66 = tail call ptr @__errno_location() #18
  store i32 %64, ptr %66, align 4
  call void (ptr, ...) @fatal_abort(ptr noundef nonnull @.str.131, ptr noundef nonnull @__func__._queue_consolidate_config_list) #17
  unreachable

67:                                               ; preds = %63
  store i1 true, ptr @config_list_update, align 1
  %68 = call i32 @pthread_mutex_unlock(ptr noundef nonnull @config_list_update_mutex) #15
  %.not5.i = icmp eq i32 %68, 0
  br i1 %.not5.i, label %_queue_consolidate_config_list.exit, label %69

69:                                               ; preds = %67
  %70 = tail call ptr @__errno_location() #18
  store i32 %68, ptr %70, align 4
  call void (ptr, ...) @fatal_abort(ptr noundef nonnull @.str.132, ptr noundef nonnull @__func__._queue_consolidate_config_list) #17
  unreachable

_queue_consolidate_config_list.exit:              ; preds = %67
  call void @set_cluster_tres(i1 noundef zeroext false) #15
  %71 = load ptr, ptr @part_list, align 8
  %72 = call i32 @list_for_each(ptr noundef %71, ptr noundef nonnull @_foreach_build_part_bitmap, ptr noundef null) #15
  call void @set_partition_tres(i1 noundef zeroext false) #15
  call void @power_save_set_timeouts(ptr noundef null) #15
  call void @power_save_exc_setup() #15
  %73 = call i32 @select_g_reconfigure() #15
  br label %74

74:                                               ; preds = %_validate_nodes_vs_nodeset.exit, %_queue_consolidate_config_list.exit, %50, %39, %12
  %.028 = phi i32 [ 2018, %_validate_nodes_vs_nodeset.exit ], [ 2028, %39 ], [ %49, %50 ], [ 0, %_queue_consolidate_config_list.exit ], [ -1, %12 ]
  %75 = load ptr, ptr %4, align 8
  call void @s_p_hashtbl_destroy(ptr noundef %75) #15
  call void @unlock_slurmctld(ptr noundef nonnull byval(%struct.slurmctld_lock_t) align 8 @__const.delete_nodes.write_lock) #15
  %76 = icmp eq i32 %.028, 0
  br i1 %76, label %77, label %80

77:                                               ; preds = %74
  %78 = load ptr, ptr @acct_db_conn, align 8
  %79 = call i32 @clusteracct_storage_g_cluster_tres(ptr noundef %78, ptr noundef null, ptr noundef null, i64 noundef 0, i16 noundef zeroext 11008) #15
  br label %80

80:                                               ; preds = %74, %77, %7
  %.0 = phi i32 [ 2002, %7 ], [ 0, %77 ], [ %.028, %74 ]
  call void @llvm.lifetime.end.p0(i64 8, ptr nonnull %4) #15
  ret i32 %.0
}